target datalayout = "e-m:e-p270:32:32-p271:32:32-p272:64:64-i64:64-i128:128-f80:128-n8:16:32:64-S128"
target triple = "x86_64-pc-linux-gnu"

%"class.pbrt::Camera" = type { %"class.pbrt::TaggedPointer.8" }
%"class.pbrt::TaggedPointer.8" = type { i64 }
%"class.pbrt::Film" = type { %"class.pbrt::TaggedPointer.6" }
%"class.pbrt::TaggedPointer.6" = type { i64 }
%"class.pbrt::Filter" = type { %"class.pbrt::TaggedPointer" }
%"class.pbrt::TaggedPointer" = type { i64 }
%"class.pbrt::Sampler" = type { %"class.pbrt::TaggedPointer.7" }
%"class.pbrt::TaggedPointer.7" = type { i64 }
%"class.pbrt::LightSampler" = type { %"class.pbrt::TaggedPointer.9" }
%"class.pbrt::TaggedPointer.9" = type { i64 }
%"struct.pbrt::SOA" = type { i32, ptr, %"struct.pbrt::SOA.10", %"struct.pbrt::SOA.11", %"struct.pbrt::SOA.12", %"struct.pbrt::SOA.12", %"struct.pbrt::SOA.13", %"struct.pbrt::SOA.18" }
%"struct.pbrt::SOA.10" = type { i32, ptr, ptr }
%"struct.pbrt::SOA.11" = type { i32, ptr, ptr, ptr, ptr }
%"struct.pbrt::SOA.12" = type { i32, ptr, ptr }
%"struct.pbrt::SOA.13" = type { i32, ptr, %"struct.pbrt::SOA.14", %"struct.pbrt::SOA.15", %"struct.pbrt::SOA.15", %"struct.pbrt::SOA.16", ptr, %"struct.pbrt::SOA.17", %"struct.pbrt::SOA.17", %"struct.pbrt::SOA.12" }
%"struct.pbrt::SOA.14" = type { i32, ptr, ptr, ptr }
%"struct.pbrt::SOA.15" = type { i32, ptr, ptr, ptr }
%"struct.pbrt::SOA.16" = type { i32, ptr, ptr }
%"struct.pbrt::SOA.17" = type { i32, ptr, ptr, ptr }
%"struct.pbrt::SOA.18" = type { ptr, ptr, ptr, ptr, ptr }
%"class.pbrt::WavefrontPathIntegrator" = type { i8, i8, i8, %"class.pstd::array", %"class.pstd::array", ptr, ptr, %"class.pbrt::Filter", %"class.pbrt::Film", %"class.pbrt::Sampler", %"class.pbrt::Camera", ptr, %"class.pbrt::LightSampler", i32, i32, i8, i32, i32, %"struct.pbrt::SOA", [2 x ptr], ptr, ptr, ptr, ptr, ptr, ptr, ptr, ptr, ptr, ptr, ptr, ptr, ptr, ptr }
%"class.pstd::array" = type { [12 x i8] }
%"struct.pbrt::BasicPBRTOptions" = type { i32, i8, i8, i8, i8, i8, i8, i8, i8, i8, i8, i32 }
%class.anon.188 = type <{ ptr, i32, [4 x i8] }>
%"class.pstd::pmr::polymorphic_allocator.191" = type { ptr }
%"struct.pbrt::WavefrontPathIntegrator::Stats" = type { i64, %"class.pstd::vector.190", %"class.pstd::vector.190" }
%"class.pstd::vector.190" = type { %"class.pstd::pmr::polymorphic_allocator.191", ptr, i64, i64 }
%"struct.pbrt::SOA.288" = type { i32, %"struct.pbrt::SOA.14", %"struct.pbrt::SOA.17", ptr, ptr }
%"struct.std::atomic.184" = type { %"struct.std::__atomic_base.185" }
%"struct.std::__atomic_base.185" = type { i32 }
%"class.pbrt::WorkQueue.290" = type <{ %"struct.pbrt::SOA.291", %"struct.std::atomic.184", [4 x i8] }>
%"struct.pbrt::SOA.291" = type { i32, %"struct.pbrt::SOA.288", ptr, %"struct.pbrt::SOA.11", %"struct.pbrt::SOA.12", %"struct.pbrt::SOA.12", %"struct.pbrt::SOA.12", ptr }

@_ZN4pbrt7OptionsE = external global ptr, align 8
@.str.13 = private unnamed_addr constant [64 x i8] c"Options->useGPU was set without PBRT_BUILD_GPU_RENDERER enabled\00", align 1
@.str.45 = private unnamed_addr constant [21 x i8] c"Reset shadowRayQueue\00", align 1
@.str.85 = private unnamed_addr constant [125 x i8] c"generated/home/dtcxzyw/WorkSpace/Projects/compilers/llvm-opt-benchmark/bench/pbrt-v4/pbrt-v4/src/pbrt/wavefront/integrator.h\00", align 1

; Function Attrs: noinline noreturn nounwind uwtable
define linkonce_odr hidden void @__clang_call_terminate(ptr noundef %0) #15 comdat {
  %2 = call ptr @__cxa_begin_catch(ptr %0) #6
  call void @_ZSt9terminatev() #28
  unreachable
}

; Function Attrs: mustprogress nounwind uwtable
define linkonce_odr dso_local noundef i32 @_ZStanSt12memory_orderSt23__memory_order_modifier(i32 noundef %0, i32 noundef %1) #7 comdat {
  %3 = alloca i32, align 4
  %4 = alloca i32, align 4
  store i32 %0, ptr %3, align 4, !tbaa !1140
  store i32 %1, ptr %4, align 4, !tbaa !1142
  %5 = load i32, ptr %3, align 4, !tbaa !1140
  %6 = load i32, ptr %4, align 4, !tbaa !1142
  %7 = and i32 %5, %6
  ret i32 %7
}

; Function Attrs: alwaysinline mustprogress nounwind uwtable
define linkonce_odr dso_local void @_ZNSt13__atomic_baseIiE5storeEiSt12memory_order(ptr noundef nonnull align 4 dereferenceable(4) %0, i32 noundef %1, i32 noundef %2) #16 comdat align 2 personality ptr @__gxx_personality_v0 {
  %4 = alloca ptr, align 8
  %5 = alloca i32, align 4
  %6 = alloca i32, align 4
  %7 = alloca i32, align 4
  %8 = alloca i32, align 4
  store ptr %0, ptr %4, align 8, !tbaa !999
  store i32 %1, ptr %5, align 4, !tbaa !142
  store i32 %2, ptr %6, align 4, !tbaa !1140
  %9 = load ptr, ptr %4, align 8
  call void @llvm.lifetime.start.p0(i64 4, ptr %7) #6
  %10 = load i32, ptr %6, align 4, !tbaa !1140
  %11 = invoke noundef i32 @_ZStanSt12memory_orderSt23__memory_order_modifier(i32 noundef %10, i32 noundef 65535)
          to label %12 unwind label %32

12:                                               ; preds = %3
  store i32 %11, ptr %7, align 4, !tbaa !1140
  br label %13

13:                                               ; preds = %12
  br label %14

14:                                               ; preds = %13
  br label %15

15:                                               ; preds = %14
  br label %16

16:                                               ; preds = %15
  br label %17

17:                                               ; preds = %16
  br label %18

18:                                               ; preds = %17
  br label %19

19:                                               ; preds = %18
  br label %20

20:                                               ; preds = %19
  br label %21

21:                                               ; preds = %20
  %22 = getelementptr inbounds nuw %"struct.std::__atomic_base.185", ptr %9, i32 0, i32 0
  %23 = load i32, ptr %6, align 4, !tbaa !1140
  %24 = load i32, ptr %5, align 4, !tbaa !142
  store i32 %24, ptr %8, align 4, !tbaa !142
  switch i32 %23, label %25 [
    i32 3, label %27
    i32 5, label %29
  ]

25:                                               ; preds = %21
  %26 = load i32, ptr %8, align 4
  store atomic i32 %26, ptr %22 monotonic, align 4
  br label %31

27:                                               ; preds = %21
  %28 = load i32, ptr %8, align 4
  store atomic i32 %28, ptr %22 release, align 4
  br label %31

29:                                               ; preds = %21
  %30 = load i32, ptr %8, align 4
  store atomic i32 %30, ptr %22 seq_cst, align 4
  br label %31

31:                                               ; preds = %29, %27, %25
  call void @llvm.lifetime.end.p0(i64 4, ptr %7) #6
  ret void

32:                                               ; preds = %3
  %33 = landingpad { ptr, i32 }
          catch ptr null
  %34 = extractvalue { ptr, i32 } %33, 0
  call void @__clang_call_terminate(ptr %34) #28
  unreachable
}

; Function Attrs: alwaysinline mustprogress nounwind uwtable
define linkonce_odr dso_local noundef i32 @_ZNKSt13__atomic_baseIiE4loadESt12memory_order(ptr noundef nonnull align 4 dereferenceable(4) %0, i32 noundef %1) #16 comdat align 2 {
  %3 = alloca ptr, align 8
  %4 = alloca i32, align 4
  %5 = alloca i32, align 4
  %6 = alloca i32, align 4
  store ptr %0, ptr %3, align 8, !tbaa !999
  store i32 %1, ptr %4, align 4, !tbaa !1140
  %7 = load ptr, ptr %3, align 8
  call void @llvm.lifetime.start.p0(i64 4, ptr %5) #6
  %8 = load i32, ptr %4, align 4, !tbaa !1140
  %9 = call noundef i32 @_ZStanSt12memory_orderSt23__memory_order_modifier(i32 noundef %8, i32 noundef 65535)
  store i32 %9, ptr %5, align 4, !tbaa !1140
  br label %10

10:                                               ; preds = %2
  br label %11

11:                                               ; preds = %10
  br label %12

12:                                               ; preds = %11
  br label %13

13:                                               ; preds = %12
  br label %14

14:                                               ; preds = %13
  br label %15

15:                                               ; preds = %14
  %16 = getelementptr inbounds nuw %"struct.std::__atomic_base.185", ptr %7, i32 0, i32 0
  %17 = load i32, ptr %4, align 4, !tbaa !1140
  switch i32 %17, label %18 [
    i32 1, label %20
    i32 2, label %20
    i32 5, label %22
  ]

18:                                               ; preds = %15
  %19 = load atomic i32, ptr %16 monotonic, align 4
  store i32 %19, ptr %6, align 4
  br label %24

20:                                               ; preds = %15, %15
  %21 = load atomic i32, ptr %16 acquire, align 4
  store i32 %21, ptr %6, align 4
  br label %24

22:                                               ; preds = %15
  %23 = load atomic i32, ptr %16 seq_cst, align 4
  store i32 %23, ptr %6, align 4
  br label %24

24:                                               ; preds = %22, %20, %18
  %25 = load i32, ptr %6, align 4, !tbaa !142
  call void @llvm.lifetime.end.p0(i64 4, ptr %5) #6
  ret i32 %25
}

; Function Attrs: mustprogress nounwind uwtable
define linkonce_odr dso_local void @_ZN4pbrt9WorkQueueINS_17ShadowRayWorkItemEE5ResetEv(ptr noundef nonnull align 8 dereferenceable(228) %0) #7 comdat align 2 {
  %2 = alloca ptr, align 8
  store ptr %0, ptr %2, align 8, !tbaa !344
  %3 = load ptr, ptr %2, align 8
  %4 = getelementptr inbounds nuw %"class.pbrt::WorkQueue.290", ptr %3, i32 0, i32 1
  call void @_ZNSt13__atomic_baseIiE5storeEiSt12memory_order(ptr noundef nonnull align 4 dereferenceable(4) %4, i32 noundef 0, i32 noundef 0) #6
  ret void
}

; Function Attrs: mustprogress nounwind uwtable
define linkonce_odr dso_local noundef nonnull align 8 dereferenceable(8) ptr @_ZN4pstd6vectorImNS_3pmr21polymorphic_allocatorImEEEixEm(ptr noundef nonnull align 8 dereferenceable(32) %0, i64 noundef %1) #7 comdat align 2 {
  %3 = alloca ptr, align 8
  %4 = alloca i64, align 8
  store ptr %0, ptr %3, align 8, !tbaa !475
  store i64 %1, ptr %4, align 8, !tbaa !174
  %5 = load ptr, ptr %3, align 8
  br label %6

6:                                                ; preds = %2
  br label %7

7:                                                ; preds = %6
  %8 = getelementptr inbounds nuw %"class.pstd::vector.190", ptr %5, i32 0, i32 1
  %9 = load ptr, ptr %8, align 8, !tbaa !477
  %10 = load i64, ptr %4, align 8, !tbaa !174
  %11 = getelementptr inbounds nuw i64, ptr %9, i64 %10
  ret ptr %11
}

; Function Attrs: mustprogress nounwind uwtable
define linkonce_odr dso_local noundef i32 @_ZNK4pbrt9WorkQueueINS_17ShadowRayWorkItemEE4SizeEv(ptr noundef nonnull align 8 dereferenceable(228) %0) #7 comdat align 2 {
  %2 = alloca ptr, align 8
  store ptr %0, ptr %2, align 8, !tbaa !344
  %3 = load ptr, ptr %2, align 8
  %4 = getelementptr inbounds nuw %"class.pbrt::WorkQueue.290", ptr %3, i32 0, i32 1
  %5 = call noundef i32 @_ZNKSt13__atomic_baseIiE4loadESt12memory_order(ptr noundef nonnull align 4 dereferenceable(4) %4, i32 noundef 0) #6
  ret i32 %5
}

; Function Attrs: inlinehint mustprogress uwtable
define internal void @"_ZZN4pbrt23WavefrontPathIntegrator15TraceShadowRaysEiENK3$_0clEv"(ptr noundef nonnull align 8 dereferenceable(12) %0) #9 align 2 {
  %2 = alloca ptr, align 8
  store ptr %0, ptr %2, align 8, !tbaa !13
  %3 = load ptr, ptr %2, align 8
  %4 = getelementptr inbounds nuw %class.anon.188, ptr %3, i32 0, i32 0
  %5 = load ptr, ptr %4, align 8, !tbaa !433
  %6 = getelementptr inbounds nuw %"class.pbrt::WavefrontPathIntegrator", ptr %5, i32 0, i32 27
  %7 = load ptr, ptr %6, align 8, !tbaa !71
  %8 = call noundef i32 @_ZNK4pbrt9WorkQueueINS_17ShadowRayWorkItemEE4SizeEv(ptr noundef nonnull align 8 dereferenceable(228) %7)
  %9 = sext i32 %8 to i64
  %10 = getelementptr inbounds nuw %"class.pbrt::WavefrontPathIntegrator", ptr %5, i32 0, i32 5
  %11 = load ptr, ptr %10, align 8, !tbaa !150
  %12 = getelementptr inbounds nuw %"struct.pbrt::WavefrontPathIntegrator::Stats", ptr %11, i32 0, i32 2
  %13 = getelementptr inbounds nuw %class.anon.188, ptr %3, i32 0, i32 1
  %14 = load i32, ptr %13, align 8, !tbaa !435
  %15 = sext i32 %14 to i64
  %16 = call noundef nonnull align 8 dereferenceable(8) ptr @_ZN4pstd6vectorImNS_3pmr21polymorphic_allocatorImEEEixEm(ptr noundef nonnull align 8 dereferenceable(32) %12, i64 noundef %15)
  %17 = load i64, ptr %16, align 8, !tbaa !174
  %18 = add i64 %17, %9
  store i64 %18, ptr %16, align 8, !tbaa !174
  %19 = getelementptr inbounds nuw %"class.pbrt::WavefrontPathIntegrator", ptr %5, i32 0, i32 27
  %20 = load ptr, ptr %19, align 8, !tbaa !71
  call void @_ZN4pbrt9WorkQueueINS_17ShadowRayWorkItemEE5ResetEv(ptr noundef nonnull align 8 dereferenceable(228) %20)
  ret void
}

; Function Attrs: mustprogress uwtable
define internal void @"_ZN4pbrt23WavefrontPathIntegrator2DoIZNS0_15TraceShadowRaysEiE3$_0EEvPKcOT_"(ptr noundef nonnull align 8 dereferenceable(648) %0, ptr noundef %1, ptr noundef nonnull align 8 dereferenceable(12) %2) #1 align 2 {
  %4 = alloca ptr, align 8
  %5 = alloca ptr, align 8
  %6 = alloca ptr, align 8
  store ptr %0, ptr %4, align 8, !tbaa !14
  store ptr %1, ptr %5, align 8, !tbaa !326
  store ptr %2, ptr %6, align 8, !tbaa !13
  %7 = load ptr, ptr @_ZN4pbrt7OptionsE, align 8, !tbaa !111
  %8 = getelementptr inbounds nuw %"struct.pbrt::BasicPBRTOptions", ptr %7, i32 0, i32 7
  %9 = load i8, ptr %8, align 2, !tbaa !113, !range !116, !noundef !117
  %10 = trunc i8 %9 to i1
  br i1 %10, label %11, label %12

11:                                               ; preds = %3
  call void @_ZN4pbrt8LogFatalENS_8LogLevelEPKciS2_(i32 noundef 2, ptr noundef @.str.85, i32 noundef 109, ptr noundef @.str.13) #26
  unreachable

12:                                               ; preds = %3
  %13 = load ptr, ptr %6, align 8, !tbaa !13
  call void @"_ZZN4pbrt23WavefrontPathIntegrator15TraceShadowRaysEiENK3$_0clEv"(ptr noundef nonnull align 8 dereferenceable(12) %13)
  br label %14

14:                                               ; preds = %12
  ret void
}

; Function Attrs: mustprogress uwtable
define dso_local void @_ZN4pbrt23WavefrontPathIntegrator15TraceShadowRaysEi(ptr noundef nonnull align 8 dereferenceable(648) %0, i32 noundef %1) #1 align 2 {
  %3 = alloca ptr, align 8
  %4 = alloca i32, align 4
  %5 = alloca %class.anon.188, align 8
  store ptr %0, ptr %3, align 8, !tbaa !14
  store i32 %1, ptr %4, align 4, !tbaa !142
  %6 = load ptr, ptr %3, align 8
  %7 = getelementptr inbounds nuw %"class.pbrt::WavefrontPathIntegrator", ptr %6, i32 0, i32 2
  %8 = load i8, ptr %7, align 2, !tbaa !80, !range !116, !noundef !117
  %9 = trunc i8 %8 to i1
  br i1 %9, label %10, label %21

10:                                               ; preds = %2
  %11 = getelementptr inbounds nuw %"class.pbrt::WavefrontPathIntegrator", ptr %6, i32 0, i32 20
  %12 = load ptr, ptr %11, align 8, !tbaa !64
  %13 = getelementptr inbounds nuw %"class.pbrt::WavefrontPathIntegrator", ptr %6, i32 0, i32 17
  %14 = load i32, ptr %13, align 8, !tbaa !147
  %15 = getelementptr inbounds nuw %"class.pbrt::WavefrontPathIntegrator", ptr %6, i32 0, i32 27
  %16 = load ptr, ptr %15, align 8, !tbaa !71
  %17 = getelementptr inbounds nuw %"class.pbrt::WavefrontPathIntegrator", ptr %6, i32 0, i32 18
  %18 = load ptr, ptr %12, align 8, !tbaa !121
  %19 = getelementptr inbounds ptr, ptr %18, i64 5
  %20 = load ptr, ptr %19, align 8
  call void %20(ptr noundef nonnull align 8 dereferenceable(8) %12, i32 noundef %14, ptr noundef %16, ptr noundef %17)
  br label %32

21:                                               ; preds = %2
  %22 = getelementptr inbounds nuw %"class.pbrt::WavefrontPathIntegrator", ptr %6, i32 0, i32 20
  %23 = load ptr, ptr %22, align 8, !tbaa !64
  %24 = getelementptr inbounds nuw %"class.pbrt::WavefrontPathIntegrator", ptr %6, i32 0, i32 17
  %25 = load i32, ptr %24, align 8, !tbaa !147
  %26 = getelementptr inbounds nuw %"class.pbrt::WavefrontPathIntegrator", ptr %6, i32 0, i32 27
  %27 = load ptr, ptr %26, align 8, !tbaa !71
  %28 = getelementptr inbounds nuw %"class.pbrt::WavefrontPathIntegrator", ptr %6, i32 0, i32 18
  %29 = load ptr, ptr %23, align 8, !tbaa !121
  %30 = getelementptr inbounds ptr, ptr %29, i64 4
  %31 = load ptr, ptr %30, align 8
  call void %31(ptr noundef nonnull align 8 dereferenceable(8) %23, i32 noundef %25, ptr noundef %27, ptr noundef %28)
  br label %32

32:                                               ; preds = %21, %10
  call void @llvm.lifetime.start.p0(i64 16, ptr %5) #6
  %33 = getelementptr inbounds nuw %class.anon.188, ptr %5, i32 0, i32 0
  store ptr %6, ptr %33, align 8, !tbaa !433
  %34 = getelementptr inbounds nuw %class.anon.188, ptr %5, i32 0, i32 1
  %35 = load i32, ptr %4, align 4, !tbaa !142
  store i32 %35, ptr %34, align 8, !tbaa !435
  call void @"_ZN4pbrt23WavefrontPathIntegrator2DoIZNS0_15TraceShadowRaysEiE3$_0EEvPKcOT_"(ptr noundef nonnull align 8 dereferenceable(648) %6, ptr noundef @.str.45, ptr noundef nonnull align 8 dereferenceable(12) %5)
  call void @llvm.lifetime.end.p0(i64 16, ptr %5) #6
  ret void
}