; Function Attrs: mustprogress uwtable
define dso_local void @_ZN4pbrt23WavefrontPathIntegrator15TraceShadowRaysEi(ptr noundef nonnull align 8 dereferenceable(648) %0, i32 noundef %1) local_unnamed_addr #4 align 2 personality ptr @__gxx_personality_v0 {
  %3 = getelementptr inbounds nuw i8, ptr %0, i64 2
  %4 = load i8, ptr %3, align 2, !tbaa !61, !range !132, !noundef !133
  %5 = trunc nuw i8 %4 to i1
  %6 = getelementptr inbounds nuw i8, ptr %0, i64 536
  %7 = load ptr, ptr %6, align 8, !tbaa !134
  %8 = getelementptr inbounds nuw i8, ptr %0, i64 112
  %9 = load i32, ptr %8, align 8, !tbaa !186
  %10 = getelementptr inbounds nuw i8, ptr %0, i64 592
  %11 = load ptr, ptr %10, align 8, !tbaa !228
  %12 = getelementptr inbounds nuw i8, ptr %0, i64 120
  %13 = load ptr, ptr %7, align 8, !tbaa !86
  %. = select i1 %5, i64 40, i64 32
  %14 = getelementptr inbounds nuw i8, ptr %13, i64 %.
  %15 = load ptr, ptr %14, align 8
  tail call void %15(ptr noundef nonnull align 8 dereferenceable(8) %7, i32 noundef %9, ptr noundef %11, ptr noundef nonnull %12)
  %16 = load ptr, ptr @_ZN4pbrt7OptionsE, align 8, !tbaa !127
  %17 = getelementptr inbounds nuw i8, ptr %16, i64 10
  %18 = load i8, ptr %17, align 2, !tbaa !129, !range !132, !noundef !133
  %19 = trunc nuw i8 %18 to i1
  br i1 %19, label %20, label %"_ZN4pbrt23WavefrontPathIntegrator2DoIZNS0_15TraceShadowRaysEiE3$_0EEvPKcOT_.exit"

20:                                               ; preds = %2
  tail call void @_ZN4pbrt8LogFatalENS_8LogLevelEPKciS2_(i32 noundef 2, ptr noundef nonnull @.str.85, i32 noundef 109, ptr noundef nonnull @.str.13) #35
  unreachable

"_ZN4pbrt23WavefrontPathIntegrator2DoIZNS0_15TraceShadowRaysEiE3$_0EEvPKcOT_.exit": ; preds = %2
  %21 = getelementptr inbounds nuw i8, ptr %0, i64 592
  %22 = load ptr, ptr %21, align 8, !tbaa !228
  %23 = getelementptr inbounds nuw i8, ptr %22, i64 224
  %24 = load atomic i32, ptr %23 monotonic, align 4
  %25 = sext i32 %24 to i64
  %26 = getelementptr inbounds nuw i8, ptr %0, i64 32
  %27 = load ptr, ptr %26, align 8, !tbaa !248
  %28 = sext i32 %1 to i64
  %29 = getelementptr inbounds nuw i8, ptr %27, i64 48
  %30 = load ptr, ptr %29, align 8, !tbaa !456
  %31 = getelementptr inbounds nuw i64, ptr %30, i64 %28
  %32 = load i64, ptr %31, align 8, !tbaa !260
  %33 = add i64 %32, %25
  store i64 %33, ptr %31, align 8, !tbaa !260
  store atomic i32 0, ptr %23 monotonic, align 4
  ret void
}